(lp0
I774314204828499969
aI1428390996
aI816962959960403968
aI809343227895697408
aI763325999878660096
aI807211089666736129
aI740943153868472325
aI806567708905078784
aI255469697
aI2955822497
aI1399803690
aI2348910077
aI2858093296
aI236119025
aI475063009
aI810562676028014592
aI2787549368
aI805019694071709697
aI804717205455769600
aI1045070041
aI178486261
aI300740743
aI214151594
aI360093142
aI281739230
aI131989639
aI2562534281
aI307937874
aI802284658335617024
aI809234035100831747
aI332145888
aI813758578603372544
aI376923356
aI630398035
aI125855201
aI2760241093
aI760622677946138624
aI267227100
aI836123647
aI1636192386
aI539163425
aI3939548788
aI4408220835
aI1659550544
aI3415574537
aI515344417
aI2909739304
a.